target datalayout = "e-m:e-p270:32:32-p271:32:32-p272:64:64-i64:64-i128:128-f80:128-n8:16:32:64-S128"
target triple = "x86_64-pc-linux-gnu"

%struct.ImVec2 = type { float, float }
%struct.ImFontConfig = type { ptr, i32, i8, i32, float, i32, i32, i8, %struct.ImVec2, %struct.ImVec2, ptr, float, float, i8, i32, float, float, i16, [40 x i8], ptr }

; Function Attrs: mustprogress nounwind uwtable
define linkonce_odr dso_local void @_ZN6ImVec2C2Ev(ptr noundef nonnull align 4 dereferenceable(8) %0) unnamed_addr #3 comdat align 2 {
  %2 = alloca ptr, align 8
  store ptr %0, ptr %2, align 8, !tbaa !33
  %3 = load ptr, ptr %2, align 8
  %4 = getelementptr inbounds nuw %struct.ImVec2, ptr %3, i32 0, i32 0
  store float 0.000000e+00, ptr %4, align 4, !tbaa !34
  %5 = getelementptr inbounds nuw %struct.ImVec2, ptr %3, i32 0, i32 1
  store float 0.000000e+00, ptr %5, align 4, !tbaa !35
  ret void
}

; Function Attrs: mustprogress uwtable
define dso_local void @_ZN12ImFontConfigC2Ev(ptr noundef nonnull align 8 dereferenceable(144) %0) unnamed_addr #6 align 2 {
  %2 = alloca ptr, align 8
  store ptr %0, ptr %2, align 8, !tbaa !272
  %3 = load ptr, ptr %2, align 8
  %4 = getelementptr inbounds nuw %struct.ImFontConfig, ptr %3, i32 0, i32 8
  call void @_ZN6ImVec2C2Ev(ptr noundef nonnull align 4 dereferenceable(8) %4)
  %5 = getelementptr inbounds nuw %struct.ImFontConfig, ptr %3, i32 0, i32 9
  call void @_ZN6ImVec2C2Ev(ptr noundef nonnull align 4 dereferenceable(8) %5)
  call void @llvm.memset.p0.i64(ptr align 8 %3, i8 0, i64 144, i1 false)
  %6 = getelementptr inbounds nuw %struct.ImFontConfig, ptr %3, i32 0, i32 2
  store i8 1, ptr %6, align 4, !tbaa !273
  %7 = getelementptr inbounds nuw %struct.ImFontConfig, ptr %3, i32 0, i32 5
  store i32 2, ptr %7, align 8, !tbaa !275
  %8 = getelementptr inbounds nuw %struct.ImFontConfig, ptr %3, i32 0, i32 6
  store i32 1, ptr %8, align 4, !tbaa !276
  %9 = getelementptr inbounds nuw %struct.ImFontConfig, ptr %3, i32 0, i32 12
  store float 0x47EFFFFFE0000000, ptr %9, align 4, !tbaa !277
  %10 = getelementptr inbounds nuw %struct.ImFontConfig, ptr %3, i32 0, i32 15
  store float 1.000000e+00, ptr %10, align 8, !tbaa !278
  %11 = getelementptr inbounds nuw %struct.ImFontConfig, ptr %3, i32 0, i32 16
  store float 1.000000e+00, ptr %11, align 4, !tbaa !279
  %12 = getelementptr inbounds nuw %struct.ImFontConfig, ptr %3, i32 0, i32 17
  store i16 -1, ptr %12, align 8, !tbaa !280
  ret void
}