; Function Attrs: mustprogress nofree norecurse nosync nounwind willreturn memory(argmem: write) uwtable
define dso_local void @_ZN12ImFontConfigC2Ev(ptr noundef nonnull writeonly align 8 captures(none) dereferenceable(144) initializes((0, 144)) %0) unnamed_addr #22 align 2 {
  %2 = getelementptr inbounds nuw i8, ptr %0, i64 12
  tail call void @llvm.memset.p0.i64(ptr noundef nonnull align 8 dereferenceable(144) %0, i8 0, i64 144, i1 false)
  store i8 1, ptr %2, align 4, !tbaa !224
  %3 = getelementptr inbounds nuw i8, ptr %0, i64 24
  store i32 2, ptr %3, align 8, !tbaa !226
  %4 = getelementptr inbounds nuw i8, ptr %0, i64 28
  store i32 1, ptr %4, align 4, !tbaa !227
  %5 = getelementptr inbounds nuw i8, ptr %0, i64 68
  store float 0x47EFFFFFE0000000, ptr %5, align 4, !tbaa !228
  %6 = getelementptr inbounds nuw i8, ptr %0, i64 80
  store float 1.000000e+00, ptr %6, align 8, !tbaa !229
  %7 = getelementptr inbounds nuw i8, ptr %0, i64 84
  store float 1.000000e+00, ptr %7, align 4, !tbaa !230
  %8 = getelementptr inbounds nuw i8, ptr %0, i64 88
  store i16 -1, ptr %8, align 8, !tbaa !231
  ret void
}